(dp0
(S'00-0.17-2.0'
p1
I0
tp2
F1.205744128
s(S'00-0.07-2.0'
p3
I1
tp4
F2.079935166885837
s(S'000.141.0'
p5
I0
tp6
F2.3772843137756525
s(S'000.113.0'
p7
I0
tp8
F1.0
s(S'00-0.04-3.0'
p9
I1
tp10
F1.32565506481447
s(S'00-0.11-3.0'
p11
I1
tp12
F1.9329294823600949
s(S'000.072.0'
p13
I0
tp14
F2.164553763850034
s(S'000.06-0.0'
p15
I0
tp16
F1.6989327512258665
s(S'000.04-0.0'
p17
I1
tp18
F2.1038132486328607
s(S'00-0.05-1.0'
p19
I1
tp20
F2.3132180260311825
s(S'00-0.03-1.0'
p21
I0
tp22
F3.39955884015589
s(S'00-0.05-2.0'
p23
I1
tp24
F2.043385112294865
s(S'00-0.03-4.0'
p25
I1
tp26
F1.0
s(S'00-0.12-0.0'
p27
I1
tp28
F1.45611363139584
s(S'000.20.0'
p29
I1
tp30
F1.1280000000000001
s(S'000.212.0'
p31
I1
tp32
F0.0
s(S'000.00.0'
p33
I1
tp34
F3.206036067561776
s(S'00-0.17-3.0'
p35
I0
tp36
F1.0
s(S'00-0.21-4.0'
p37
I0
tp38
I0
s(S'000.13.0'
p39
I1
tp40
F1.1600000000000001
s(S'00-0.052.0'
p41
I0
tp42
F1.0
s(S'000.171.0'
p43
I1
tp44
F1.1600000000000001
s(S'00-0.0-2.0'
p45
I1
tp46
F2.3064937379319037
s(S'000.032.0'
p47
I0
tp48
F2.304841345077899
s(S'00-0.01.0'
p49
I0
tp50
F3.6491075514913742
s(S'00-0.14-1.0'
p51
I1
tp52
F1.5928113569792
s(S'00-0.18-2.0'
p53
I1
tp54
F1.0
s(S'00-0.16-2.0'
p55
I0
tp56
F1.6107058176
s(S'000.111.0'
p57
I1
tp58
F2.115730297203175
s(S'000.092.0'
p59
I1
tp60
F2.2327771347960903
s(S'00-0.18-1.0'
p61
I1
tp62
F1.1600000000000001
s(S'00-0.11-1.0'
p63
I0
tp64
F1.406784
s(S'000.142.0'
p65
I1
tp66
F2.553909515997488
s(S'000.020.0'
p67
I1
tp68
F2.9841199329535923
s(S'000.031.0'
p69
I1
tp70
F3.3768344235342327
s(S'000.041.0'
p71
I0
tp72
F3.322757560650556
s(S'000.192.0'
p73
I1
tp74
I0
s(S'00-0.21-3.0'
p75
I0
tp76
F0.0
s(S'00-0.0-0.0'
p77
I0
tp78
F3.60131253194773
s(S'00-0.19-2.0'
p79
I0
tp80
F0.2624
s(S'000.161.0'
p81
I1
tp82
F1.41583149056
s(S'00-0.01-1.0'
p83
I0
tp84
F3.6250666678526913
s(S'000.07-0.0'
p85
I0
tp86
F2.3182306995664312
s(S'000.071.0'
p87
I0
tp88
F3.4145707495630186
s(S'00-0.21-2.0'
p89
I0
tp90
F0.0
s(S'000.061.0'
p91
I1
tp92
F3.324130834773445
s(S'00-0.12-3.0'
p93
I1
tp94
F1.6192153395200002
s(S'000.153.0'
p95
I1
tp96
F1.5232332800000001
s(S'000.16-1.0'
p97
I0
tp98
F1.0
s(S'000.182.0'
p99
I1
tp100
F1.0296026540657868
s(S'000.162.0'
p101
I0
tp102
F2.081955270395314
s(S'00-0.021.0'
p103
I1
tp104
F3.6549794688405743
s(S'00-0.06-2.0'
p105
I1
tp106
F1.9882753240723507
s(S'00-0.04-0.0'
p107
I0
tp108
F3.484221106926531
s(S'000.131.0'
p109
I0
tp110
F2.3884499353100965
s(S'000.080.0'
p111
I0
tp112
F1.6464833603455025
s(S'00-0.13-2.0'
p113
I1
tp114
F2.005709789940941
s(S'000.22.0'
p115
I1
tp116
F0.0
s(S'000.172.0'
p117
I1
tp118
F1.6531550492762128
s(S'00-0.02-1.0'
p119
I0
tp120
F3.469113733370541
s(S'000.043.0'
p121
I1
tp122
F1.0
s(S'000.2-0.0'
p123
I1
tp124
F1.0
s(S'000.01-0.0'
p125
I0
tp126
F2.6936908772311
s(S'000.02-0.0'
p127
I0
tp128
F3.1175886577792213
s(S'00-0.1-1.0'
p129
I0
tp130
F1.2093568000000001
s(S'00-0.2-1.0'
p131
I0
tp132
F0.0
s(S'000.03-0.0'
p133
I0
tp134
F2.820485207887486
s(S'00-0.18-3.0'
p135
I0
tp136
F0.36000000000000004
s(S'00-0.06-0.0'
p137
I1
tp138
F1.3262080532394793
s(S'00-0.09-3.0'
p139
I0
tp140
F1.2312762327039999
s(S'00-0.02-2.0'
p141
I0
tp142
F2.1683947827422583
s(S'000.012.0'
p143
I0
tp144
F1.6998831321283527
s(S'000.09-1.0'
p145
I0
tp146
F1.0
s(S'00-0.15-1.0'
p147
I1
tp148
F1.288
s(S'00-0.020.0'
p149
I0
tp150
F2.284258526787422
s(S'000.022.0'
p151
I0
tp152
F2.876242102931747
s(S'000.06-1.0'
p153
I0
tp154
F1.0
s(S'000.01-2.0'
p155
I1
tp156
F2.373918927665875
s(S'000.1-1.0'
p157
I1
tp158
F1.0
s(S'000.08-2.0'
p159
I0
tp160
F1.0
s(S'00-0.2-3.0'
p161
I1
tp162
F0.0
s(S'000.083.0'
p163
I1
tp164
F1.440623742714791
s(S'00-0.02-0.0'
p165
I1
tp166
F2.8484560083357153
s(S'00-0.14-2.0'
p167
I1
tp168
F1.3709440000000002
s(S'00-0.03-0.0'
p169
I1
tp170
F3.717738667733852
s(S'00-0.07-0.0'
p171
I1
tp172
F1.0
s(S'000.053.0'
p173
I0
tp174
F1.0
s(S'000.0-2.0'
p175
I1
tp176
F1.3375381454009638
s(S'000.11.0'
p177
I1
tp178
F2.7493431868111045
s(S'000.04-1.0'
p179
I1
tp180
F2.2298170187278665
s(S'00-0.09-2.0'
p181
I1
tp182
F2.1967855134813026
s(S'000.121.0'
p183
I0
tp184
F1.8740685210229433
s(S'00-0.12-2.0'
p185
I1
tp186
F1.6127320465408002
s(S'00-0.030.0'
p187
I0
tp188
F3.8213629610412374
s(S'00-0.00.0'
p189
I1
tp190
F3.476004865990287
s(S'000.163.0'
p191
I1
tp192
F1.0
s(S'000.23.0'
p193
I1
tp194
F0.0
s(S'00-0.17-1.0'
p195
I1
tp196
F1.0
s(S'000.15-1.0'
p197
I1
tp198
F1.0
s(S'000.17-1.0'
p199
I0
tp200
F1.0
s(S'00-0.040.0'
p201
I0
tp202
F3.589685918923679
s(S'000.14-1.0'
p203
I1
tp204
F1.0
s(S'000.021.0'
p205
I0
tp206
F3.4352782504266015
s(S'000.213.0'
p207
I1
tp208
I0
s(S'000.213.0'
p209
I0
tp210
F0.0
s(S'00-0.19-3.0'
p211
I1
tp212
F0.0
s(S'000.05-1.0'
p213
I1
tp214
F1.6990675408796314
s(S'000.063.0'
p215
I1
tp216
F1.3136
s(S'000.0-0.0'
p217
I1
tp218
F1.7206532244061394
s(S'00-0.050.0'
p219
I1
tp220
F1.288
s(S'000.02.0'
p221
I0
tp222
F2.914899395426618
s(S'000.050.0'
p223
I1
tp224
F2.735537328286155
s(S'000.091.0'
p225
I0
tp226
F2.9951338213415712
s(S'00-0.2-2.0'
p227
I0
tp228
I0
s(S'00-0.031.0'
p229
I0
tp230
F3.591150678477588
s(S'00-0.01-2.0'
p231
I1
tp232
F2.6506618153915347
s(S'000.152.0'
p233
I1
tp234
F2.367187476872018
s(S'00-0.06-3.0'
p235
I0
tp236
F1.0
s(S'00-0.04-1.0'
p237
I1
tp238
F2.8236228245229382
s(S'000.01.0'
p239
I1
tp240
F3.62054144123478
s(S'00-0.13-3.0'
p241
I0
tp242
F1.9579547897102338
s(S'000.183.0'
p243
I1
tp244
F0.8720000000000001
s(S'00-0.21-2.0'
p245
I1
tp246
F0.0
s(S'000.263.0'
p247
I1
tp248
F1.0
s(S'00-0.2-4.0'
p249
I0
tp250
F0.0
s(S'000.132.0'
p251
I1
tp252
F2.630155749431516
s(S'00-0.15-2.0'
p253
I1
tp254
F1.7895725072711681
s(S'000.123.0'
p255
I1
tp256
F1.2126336
s(S'00-0.13-0.0'
p257
I1
tp258
F1.0
s(S'000.122.0'
p259
I0
tp260
F2.808219433128546
s(S'000.073.0'
p261
I1
tp262
F1.377819143154434
s(S'00-0.041.0'
p263
I1
tp264
F3.405800727828525
s(S'00-0.2-3.0'
p265
I0
tp266
F0.0
s(S'00-0.07-3.0'
p267
I0
tp268
F1.8224251018269952
s(S'000.082.0'
p269
I1
tp270
F2.01302892875215
s(S'000.112.0'
p271
I1
tp272
F2.820483857219758
s(S'000.01-1.0'
p273
I1
tp274
F3.639235992267893
s(S'00-0.11-2.0'
p275
I0
tp276
F1.9455660221438364
s(S'00-0.011.0'
p277
I1
tp278
F3.5589590908895583
s(S'000.05-0.0'
p279
I0
tp280
F1.9809666651252207
s(S'000.19-1.0'
p281
I1
tp282
F1.0
s(S'00-0.08-1.0'
p283
I0
tp284
F1.4311896064
s(S'000.18-1.0'
p285
I1
tp286
F1.0
s(S'000.151.0'
p287
I0
tp288
F1.5712681989195083
s(S'000.13-1.0'
p289
I0
tp290
F1.0
s(S'000.052.0'
p291
I1
tp292
F2.4270608100020445
s(S'00-0.16-1.0'
p293
I0
tp294
F1.1691488256
s(S'00-0.12-1.0'
p295
I0
tp296
F1.1856
s(S'00-0.07-1.0'
p297
I1
tp298
F2.1779153741003174
s(S'00-0.08-2.0'
p299
I0
tp300
F2.0035566864121206
s(S'00-0.14-3.0'
p301
I1
tp302
F1.793782272
s(S'00-0.14-0.0'
p303
I1
tp304
F1.1600000000000001
s(S'00-0.15-3.0'
p305
I0
tp306
F1.0
s(S'000.062.0'
p307
I1
tp308
F1.7589519744506517
s(S'000.23.0'
p309
I0
tp310
F0.0
s(S'000.010.0'
p311
I0
tp312
F3.6382541617864375
s(S'00-0.08-3.0'
p313
I0
tp314
F1.8672549631720163
s(S'00-0.16-3.0'
p315
I1
tp316
F1.1280000000000001
s(S'000.212.0'
p317
I0
tp318
F0.0
s(S'000.181.0'
p319
I1
tp320
F1.760096836681728
s(S'000.02-1.0'
p321
I1
tp322
F2.9756282227380657
s(S'000.011.0'
p323
I1
tp324
F3.5920460803790952
s(S'000.030.0'
p325
I1
tp326
F2.6644788692596144
s(S'000.191.0'
p327
I1
tp328
F1.459741151232
s(S'000.093.0'
p329
I0
tp330
F1.532119815424462
s(S'000.211.0'
p331
I1
tp332
F0.0
s(S'00-0.120.0'
p333
I1
tp334
F1.20608
s(S'000.060.0'
p335
I1
tp336
F2.3243340930018785
s(S'000.143.0'
p337
I0
tp338
F1.176384
s(S'00-0.012.0'
p339
I0
tp340
F1.8438687144807622
s(S'00-0.03-2.0'
p341
I1
tp342
F2.339791045840247
s(S'000.040.0'
p343
I1
tp344
F2.25718297125536
s(S'000.081.0'
p345
I0
tp346
F3.342040732828167
s(S'000.192.0'
p347
I0
tp348
F0.8628226016640392
s(S'00-0.09-1.0'
p349
I0
tp350
F1.1600000000000001
s(S'00-0.1-3.0'
p351
I0
tp352
F2.196108382597022
s(S'00-0.2-2.0'
p353
I1
tp354
F0.0
s(S'00-0.19-2.0'
p355
I1
tp356
I0
s(S'00-0.19-1.0'
p357
I1
tp358
F1.0
s(S'000.0-1.0'
p359
I1
tp360
F3.4255887885361367
s(S'000.21.0'
p361
I0
tp362
F0.2890884186112
s(S'00-0.010.0'
p363
I0
tp364
F2.14987070738658
s(S'00-0.05-0.0'
p365
I0
tp366
F1.7276260740754192
s(S'00-0.01-0.0'
p367
I0
tp368
F3.378334673095528
s(S'000.051.0'
p369
I1
tp370
F3.549143252915173
s(S'000.12.0'
p371
I0
tp372
F2.84940133633549
s(S'000.070.0'
p373
I0
tp374
F3.138794814950862
s(S'000.03-1.0'
p375
I1
tp376
F2.752577274428432
s(S'000.173.0'
p377
I1
tp378
F1.065536
s(S'00-0.04-2.0'
p379
I1
tp380
F2.079536277761783
s(S'00-0.18-3.0'
p381
I1
tp382
F0.0
s(S'00-0.2-4.0'
p383
I1
tp384
I0
s(S'000.02-2.0'
p385
I1
tp386
F1.1600000000000001
s(S'000.210.0'
p387
I0
tp388
F0.0
s(S'000.211.0'
p389
I0
tp390
F0.0
s(S'000.042.0'
p391
I0
tp392
F1.9924553770406803
s(S'00-0.02.0'
p393
I0
tp394
F2.4156535055650257
s(S'00-0.06-1.0'
p395
I1
tp396
F2.092873491098061
s(S'000.133.0'
p397
I0
tp398
F1.237766656
s(S'000.22.0'
p399
I0
tp400
F0.0
s(S'00-0.1-4.0'
p401
I0
tp402
F1.0
s(S'00-0.1-2.0'
p403
I0
tp404
F1.6849175388160003
s(S'00-0.13-1.0'
p405
I0
tp406
F1.5467371896832
s(S'00-0.0-1.0'
p407
I0
tp408
F3.732988816186071
s(S'000.12-1.0'
p409
I1
tp410
F1.0
s.